target datalayout = "e-m:e-p270:32:32-p271:32:32-p272:64:64-i64:64-i128:128-f80:128-n8:16:32:64-S128"
target triple = "x86_64-pc-linux-gnu"

%"class.testing::internal::linked_ptr_internal" = type { ptr }
%"class.testing::internal::ParamGenerator.75" = type { %"class.testing::internal::linked_ptr.76" }
%"class.testing::internal::linked_ptr.76" = type { ptr, %"class.testing::internal::linked_ptr_internal" }
%"class.testing::internal::CartesianProductHolder2.158" = type { %"class.testing::internal::ValueArray2.159", %"class.testing::internal::ValueArray6" }
%"class.testing::internal::ValueArray2.159" = type { i32, i32 }
%"class.testing::internal::ValueArray6" = type { i32, i32, i32, i32, i32, i32 }

; Function Attrs: mustprogress nounwind uwtable
define linkonce_odr hidden void @_ZN7testing8internal11ValueArray6IN2cv15HistCompMethodsES3_S3_S3_S3_S3_EC2ERKS4_(ptr noundef nonnull align 4 dereferenceable(24) %0, ptr noundef nonnull align 4 dereferenceable(24) %1) unnamed_addr #9 comdat align 2 {
  %3 = alloca ptr, align 8
  %4 = alloca ptr, align 8
  store ptr %0, ptr %3, align 8, !tbaa !611
  store ptr %1, ptr %4, align 8, !tbaa !611
  %5 = load ptr, ptr %3, align 8
  %6 = getelementptr inbounds nuw %"class.testing::internal::ValueArray6", ptr %5, i32 0, i32 0
  %7 = load ptr, ptr %4, align 8, !tbaa !611
  %8 = getelementptr inbounds nuw %"class.testing::internal::ValueArray6", ptr %7, i32 0, i32 0
  %9 = load i32, ptr %8, align 4, !tbaa !620
  store i32 %9, ptr %6, align 4, !tbaa !620
  %10 = getelementptr inbounds nuw %"class.testing::internal::ValueArray6", ptr %5, i32 0, i32 1
  %11 = load ptr, ptr %4, align 8, !tbaa !611
  %12 = getelementptr inbounds nuw %"class.testing::internal::ValueArray6", ptr %11, i32 0, i32 1
  %13 = load i32, ptr %12, align 4, !tbaa !622
  store i32 %13, ptr %10, align 4, !tbaa !622
  %14 = getelementptr inbounds nuw %"class.testing::internal::ValueArray6", ptr %5, i32 0, i32 2
  %15 = load ptr, ptr %4, align 8, !tbaa !611
  %16 = getelementptr inbounds nuw %"class.testing::internal::ValueArray6", ptr %15, i32 0, i32 2
  %17 = load i32, ptr %16, align 4, !tbaa !623
  store i32 %17, ptr %14, align 4, !tbaa !623
  %18 = getelementptr inbounds nuw %"class.testing::internal::ValueArray6", ptr %5, i32 0, i32 3
  %19 = load ptr, ptr %4, align 8, !tbaa !611
  %20 = getelementptr inbounds nuw %"class.testing::internal::ValueArray6", ptr %19, i32 0, i32 3
  %21 = load i32, ptr %20, align 4, !tbaa !624
  store i32 %21, ptr %18, align 4, !tbaa !624
  %22 = getelementptr inbounds nuw %"class.testing::internal::ValueArray6", ptr %5, i32 0, i32 4
  %23 = load ptr, ptr %4, align 8, !tbaa !611
  %24 = getelementptr inbounds nuw %"class.testing::internal::ValueArray6", ptr %23, i32 0, i32 4
  %25 = load i32, ptr %24, align 4, !tbaa !625
  store i32 %25, ptr %22, align 4, !tbaa !625
  %26 = getelementptr inbounds nuw %"class.testing::internal::ValueArray6", ptr %5, i32 0, i32 5
  %27 = load ptr, ptr %4, align 8, !tbaa !611
  %28 = getelementptr inbounds nuw %"class.testing::internal::ValueArray6", ptr %27, i32 0, i32 5
  %29 = load i32, ptr %28, align 4, !tbaa !626
  store i32 %29, ptr %26, align 4, !tbaa !626
  ret void
}

; Function Attrs: mustprogress nounwind uwtable
define linkonce_odr hidden void @_ZN7testing8internal11ValueArray2IiiEC2ERKS2_(ptr noundef nonnull align 4 dereferenceable(8) %0, ptr noundef nonnull align 4 dereferenceable(8) %1) unnamed_addr #9 comdat align 2 {
  %3 = alloca ptr, align 8
  %4 = alloca ptr, align 8
  store ptr %0, ptr %3, align 8, !tbaa !609
  store ptr %1, ptr %4, align 8, !tbaa !609
  %5 = load ptr, ptr %3, align 8
  %6 = getelementptr inbounds nuw %"class.testing::internal::ValueArray2.159", ptr %5, i32 0, i32 0
  %7 = load ptr, ptr %4, align 8, !tbaa !609
  %8 = getelementptr inbounds nuw %"class.testing::internal::ValueArray2.159", ptr %7, i32 0, i32 0
  %9 = load i32, ptr %8, align 4, !tbaa !617
  store i32 %9, ptr %6, align 4, !tbaa !617
  %10 = getelementptr inbounds nuw %"class.testing::internal::ValueArray2.159", ptr %5, i32 0, i32 1
  %11 = load ptr, ptr %4, align 8, !tbaa !609
  %12 = getelementptr inbounds nuw %"class.testing::internal::ValueArray2.159", ptr %11, i32 0, i32 1
  %13 = load i32, ptr %12, align 4, !tbaa !619
  store i32 %13, ptr %10, align 4, !tbaa !619
  ret void
}

; Function Attrs: mustprogress uwtable
define linkonce_odr hidden void @_ZN7testing8internal23CartesianProductHolder2INS0_11ValueArray2IiiEENS0_11ValueArray6IN2cv15HistCompMethodsES6_S6_S6_S6_S6_EEEC2ERKS3_RKS7_(ptr noundef nonnull align 4 dereferenceable(32) %0, ptr noundef nonnull align 4 dereferenceable(8) %1, ptr noundef nonnull align 4 dereferenceable(24) %2) unnamed_addr #6 comdat align 2 {
  %4 = alloca ptr, align 8
  %5 = alloca ptr, align 8
  %6 = alloca ptr, align 8
  store ptr %0, ptr %4, align 8, !tbaa !615
  store ptr %1, ptr %5, align 8, !tbaa !609
  store ptr %2, ptr %6, align 8, !tbaa !611
  %7 = load ptr, ptr %4, align 8
  %8 = getelementptr inbounds nuw %"class.testing::internal::CartesianProductHolder2.158", ptr %7, i32 0, i32 0
  %9 = load ptr, ptr %5, align 8, !tbaa !609
  call void @_ZN7testing8internal11ValueArray2IiiEC2ERKS2_(ptr noundef nonnull align 4 dereferenceable(8) %8, ptr noundef nonnull align 4 dereferenceable(8) %9)
  %10 = getelementptr inbounds nuw %"class.testing::internal::CartesianProductHolder2.158", ptr %7, i32 0, i32 1
  %11 = load ptr, ptr %6, align 8, !tbaa !611
  call void @_ZN7testing8internal11ValueArray6IN2cv15HistCompMethodsES3_S3_S3_S3_S3_EC2ERKS4_(ptr noundef nonnull align 4 dereferenceable(24) %10, ptr noundef nonnull align 4 dereferenceable(24) %11)
  ret void
}

; Function Attrs: mustprogress nounwind uwtable
define linkonce_odr hidden void @_ZN7testing8internal11ValueArray6IN2cv15HistCompMethodsES3_S3_S3_S3_S3_EC2ES3_S3_S3_S3_S3_S3_(ptr noundef nonnull align 4 dereferenceable(24) %0, i32 noundef %1, i32 noundef %2, i32 noundef %3, i32 noundef %4, i32 noundef %5, i32 noundef %6) unnamed_addr #9 comdat align 2 {
  %8 = alloca ptr, align 8
  %9 = alloca i32, align 4
  %10 = alloca i32, align 4
  %11 = alloca i32, align 4
  %12 = alloca i32, align 4
  %13 = alloca i32, align 4
  %14 = alloca i32, align 4
  store ptr %0, ptr %8, align 8, !tbaa !611
  store i32 %1, ptr %9, align 4, !tbaa !613
  store i32 %2, ptr %10, align 4, !tbaa !613
  store i32 %3, ptr %11, align 4, !tbaa !613
  store i32 %4, ptr %12, align 4, !tbaa !613
  store i32 %5, ptr %13, align 4, !tbaa !613
  store i32 %6, ptr %14, align 4, !tbaa !613
  %15 = load ptr, ptr %8, align 8
  %16 = getelementptr inbounds nuw %"class.testing::internal::ValueArray6", ptr %15, i32 0, i32 0
  %17 = load i32, ptr %9, align 4, !tbaa !613
  store i32 %17, ptr %16, align 4, !tbaa !620
  %18 = getelementptr inbounds nuw %"class.testing::internal::ValueArray6", ptr %15, i32 0, i32 1
  %19 = load i32, ptr %10, align 4, !tbaa !613
  store i32 %19, ptr %18, align 4, !tbaa !622
  %20 = getelementptr inbounds nuw %"class.testing::internal::ValueArray6", ptr %15, i32 0, i32 2
  %21 = load i32, ptr %11, align 4, !tbaa !613
  store i32 %21, ptr %20, align 4, !tbaa !623
  %22 = getelementptr inbounds nuw %"class.testing::internal::ValueArray6", ptr %15, i32 0, i32 3
  %23 = load i32, ptr %12, align 4, !tbaa !613
  store i32 %23, ptr %22, align 4, !tbaa !624
  %24 = getelementptr inbounds nuw %"class.testing::internal::ValueArray6", ptr %15, i32 0, i32 4
  %25 = load i32, ptr %13, align 4, !tbaa !613
  store i32 %25, ptr %24, align 4, !tbaa !625
  %26 = getelementptr inbounds nuw %"class.testing::internal::ValueArray6", ptr %15, i32 0, i32 5
  %27 = load i32, ptr %14, align 4, !tbaa !613
  store i32 %27, ptr %26, align 4, !tbaa !626
  ret void
}

; Function Attrs: mustprogress nounwind uwtable
define linkonce_odr hidden void @_ZN7testing8internal11ValueArray2IiiEC2Eii(ptr noundef nonnull align 4 dereferenceable(8) %0, i32 noundef %1, i32 noundef %2) unnamed_addr #9 comdat align 2 {
  %4 = alloca ptr, align 8
  %5 = alloca i32, align 4
  %6 = alloca i32, align 4
  store ptr %0, ptr %4, align 8, !tbaa !609
  store i32 %1, ptr %5, align 4, !tbaa !9
  store i32 %2, ptr %6, align 4, !tbaa !9
  %7 = load ptr, ptr %4, align 8
  %8 = getelementptr inbounds nuw %"class.testing::internal::ValueArray2.159", ptr %7, i32 0, i32 0
  %9 = load i32, ptr %5, align 4, !tbaa !9
  store i32 %9, ptr %8, align 4, !tbaa !617
  %10 = getelementptr inbounds nuw %"class.testing::internal::ValueArray2.159", ptr %7, i32 0, i32 1
  %11 = load i32, ptr %6, align 4, !tbaa !9
  store i32 %11, ptr %10, align 4, !tbaa !619
  ret void
}

; Function Attrs: mustprogress uwtable
define linkonce_odr hidden void @_ZN7testing7CombineINS_8internal11ValueArray2IiiEENS1_11ValueArray6IN2cv15HistCompMethodsES6_S6_S6_S6_S6_EEEENS1_23CartesianProductHolder2IT_T0_EERKS9_RKSA_(ptr dead_on_unwind noalias writable sret(%"class.testing::internal::CartesianProductHolder2.158") align 4 %0, ptr noundef nonnull align 4 dereferenceable(8) %1, ptr noundef nonnull align 4 dereferenceable(24) %2) #6 comdat {
  %4 = alloca ptr, align 8
  %5 = alloca ptr, align 8
  %6 = alloca ptr, align 8
  store ptr %0, ptr %4, align 8
  store ptr %1, ptr %5, align 8, !tbaa !609
  store ptr %2, ptr %6, align 8, !tbaa !611
  %7 = load ptr, ptr %5, align 8, !tbaa !609
  %8 = load ptr, ptr %6, align 8, !tbaa !611
  call void @_ZN7testing8internal23CartesianProductHolder2INS0_11ValueArray2IiiEENS0_11ValueArray6IN2cv15HistCompMethodsES6_S6_S6_S6_S6_EEEC2ERKS3_RKS7_(ptr noundef nonnull align 4 dereferenceable(32) %0, ptr noundef nonnull align 4 dereferenceable(8) %7, ptr noundef nonnull align 4 dereferenceable(24) %8)
  ret void
}

; Function Attrs: mustprogress uwtable
define linkonce_odr hidden void @_ZN7testing6ValuesIN2cv15HistCompMethodsES2_S2_S2_S2_S2_EENS_8internal11ValueArray6IT_T0_T1_T2_T3_T4_EES5_S6_S7_S8_S9_SA_(ptr dead_on_unwind noalias writable sret(%"class.testing::internal::ValueArray6") align 4 %0, i32 noundef %1, i32 noundef %2, i32 noundef %3, i32 noundef %4, i32 noundef %5, i32 noundef %6) #6 comdat {
  %8 = alloca ptr, align 8
  %9 = alloca i32, align 4
  %10 = alloca i32, align 4
  %11 = alloca i32, align 4
  %12 = alloca i32, align 4
  %13 = alloca i32, align 4
  %14 = alloca i32, align 4
  store ptr %0, ptr %8, align 8
  store i32 %1, ptr %9, align 4, !tbaa !613
  store i32 %2, ptr %10, align 4, !tbaa !613
  store i32 %3, ptr %11, align 4, !tbaa !613
  store i32 %4, ptr %12, align 4, !tbaa !613
  store i32 %5, ptr %13, align 4, !tbaa !613
  store i32 %6, ptr %14, align 4, !tbaa !613
  %15 = load i32, ptr %9, align 4, !tbaa !613
  %16 = load i32, ptr %10, align 4, !tbaa !613
  %17 = load i32, ptr %11, align 4, !tbaa !613
  %18 = load i32, ptr %12, align 4, !tbaa !613
  %19 = load i32, ptr %13, align 4, !tbaa !613
  %20 = load i32, ptr %14, align 4, !tbaa !613
  call void @_ZN7testing8internal11ValueArray6IN2cv15HistCompMethodsES3_S3_S3_S3_S3_EC2ES3_S3_S3_S3_S3_S3_(ptr noundef nonnull align 4 dereferenceable(24) %0, i32 noundef %15, i32 noundef %16, i32 noundef %17, i32 noundef %18, i32 noundef %19, i32 noundef %20)
  ret void
}

; Function Attrs: mustprogress uwtable
define linkonce_odr hidden void @_ZN7testing6ValuesIiiEENS_8internal11ValueArray2IT_T0_EES3_S4_(ptr dead_on_unwind noalias writable sret(%"class.testing::internal::ValueArray2.159") align 4 %0, i32 noundef %1, i32 noundef %2) #6 comdat {
  %4 = alloca ptr, align 8
  %5 = alloca i32, align 4
  %6 = alloca i32, align 4
  store ptr %0, ptr %4, align 8
  store i32 %1, ptr %5, align 4, !tbaa !9
  store i32 %2, ptr %6, align 4, !tbaa !9
  %7 = load i32, ptr %5, align 4, !tbaa !9
  %8 = load i32, ptr %6, align 4, !tbaa !9
  call void @_ZN7testing8internal11ValueArray2IiiEC2Eii(ptr noundef nonnull align 4 dereferenceable(8) %0, i32 noundef %7, i32 noundef %8)
  ret void
}

; Function Attrs: mustprogress uwtable
define internal void @_ZN11opencv_testL46gtest_Dim_Cmpmethod_compareHist_EvalGenerator_Ev(ptr dead_on_unwind noalias writable sret(%"class.testing::internal::ParamGenerator.75") align 8 %0) #6 {
  %2 = alloca ptr, align 8
  %3 = alloca %"class.testing::internal::CartesianProductHolder2.158", align 4
  %4 = alloca %"class.testing::internal::ValueArray2.159", align 4
  %5 = alloca %"class.testing::internal::ValueArray6", align 4
  store ptr %0, ptr %2, align 8
  call void @llvm.lifetime.start.p0(i64 32, ptr %3) #3
  call void @llvm.lifetime.start.p0(i64 8, ptr %4) #3
  call void @_ZN7testing6ValuesIiiEENS_8internal11ValueArray2IT_T0_EES3_S4_(ptr dead_on_unwind writable sret(%"class.testing::internal::ValueArray2.159") align 4 %4, i32 noundef 1, i32 noundef 3)
  call void @llvm.lifetime.start.p0(i64 24, ptr %5) #3
  call void @_ZN7testing6ValuesIN2cv15HistCompMethodsES2_S2_S2_S2_S2_EENS_8internal11ValueArray6IT_T0_T1_T2_T3_T4_EES5_S6_S7_S8_S9_SA_(ptr dead_on_unwind writable sret(%"class.testing::internal::ValueArray6") align 4 %5, i32 noundef 0, i32 noundef 1, i32 noundef 2, i32 noundef 3, i32 noundef 4, i32 noundef 5)
  call void @_ZN7testing7CombineINS_8internal11ValueArray2IiiEENS1_11ValueArray6IN2cv15HistCompMethodsES6_S6_S6_S6_S6_EEEENS1_23CartesianProductHolder2IT_T0_EERKS9_RKSA_(ptr dead_on_unwind writable sret(%"class.testing::internal::CartesianProductHolder2.158") align 4 %3, ptr noundef nonnull align 4 dereferenceable(8) %4, ptr noundef nonnull align 4 dereferenceable(24) %5)
  call void @_ZNK7testing8internal23CartesianProductHolder2INS0_11ValueArray2IiiEENS0_11ValueArray6IN2cv15HistCompMethodsES6_S6_S6_S6_S6_EEEcvNS0_14ParamGeneratorISt5tupleIJT_T0_EEEEIiiEEv(ptr dead_on_unwind writable sret(%"class.testing::internal::ParamGenerator.75") align 8 %0, ptr noundef nonnull align 4 dereferenceable(32) %3)
  call void @llvm.lifetime.end.p0(i64 24, ptr %5) #3
  call void @llvm.lifetime.end.p0(i64 8, ptr %4) #3
  call void @llvm.lifetime.end.p0(i64 32, ptr %3) #3
  ret void
}