; Function Attrs: mustprogress uwtable
define internal void @_ZN11opencv_testL46gtest_Dim_Cmpmethod_compareHist_EvalGenerator_Ev(ptr dead_on_unwind noalias writable sret(%"class.testing::internal::ParamGenerator.75") align 8 %0) #4 {
  %2 = alloca %"class.testing::internal::CartesianProductHolder2.158", align 4
  call void @llvm.lifetime.start.p0(i64 32, ptr nonnull %2) #30
  store i32 1, ptr %2, align 4, !tbaa !178, !alias.scope !180
  %3 = getelementptr inbounds nuw i8, ptr %2, i64 4
  store i32 3, ptr %3, align 4, !tbaa !183, !alias.scope !180
  %4 = getelementptr inbounds nuw i8, ptr %2, i64 8
  store i32 0, ptr %4, align 4, !tbaa !184, !alias.scope !180
  %5 = getelementptr inbounds nuw i8, ptr %2, i64 12
  store i32 1, ptr %5, align 4, !tbaa !187, !alias.scope !180
  %6 = getelementptr inbounds nuw i8, ptr %2, i64 16
  store i32 2, ptr %6, align 4, !tbaa !188, !alias.scope !180
  %7 = getelementptr inbounds nuw i8, ptr %2, i64 20
  store i32 3, ptr %7, align 4, !tbaa !189, !alias.scope !180
  %8 = getelementptr inbounds nuw i8, ptr %2, i64 24
  store i32 4, ptr %8, align 4, !tbaa !190, !alias.scope !180
  %9 = getelementptr inbounds nuw i8, ptr %2, i64 28
  store i32 5, ptr %9, align 4, !tbaa !191, !alias.scope !180
  call void @_ZNK7testing8internal23CartesianProductHolder2INS0_11ValueArray2IiiEENS0_11ValueArray6IN2cv15HistCompMethodsES6_S6_S6_S6_S6_EEEcvNS0_14ParamGeneratorISt5tupleIJT_T0_EEEEIiiEEv(ptr dead_on_unwind writable sret(%"class.testing::internal::ParamGenerator.75") align 8 %0, ptr noundef nonnull align 4 dereferenceable(32) %2)
  call void @llvm.lifetime.end.p0(i64 32, ptr nonnull %2) #30
  ret void
}